; Function Attrs: nounwind uwtable
define ptr @l_Lean_Meta_MatcherApp_withUserNames___rarg(ptr noundef %0, ptr noundef %1, ptr readnone captures(none) %2, ptr noundef %3, ptr noundef %4, ptr noundef %5) #1 {
  %7 = getelementptr inbounds nuw i8, ptr %1, i64 16
  %8 = load ptr, ptr %7, align 8, !tbaa !4
  %9 = ptrtoint ptr %8 to i64
  %10 = and i64 %9, 1
  %.not = icmp eq i64 %10, 0
  br i1 %.not, label %11, label %lean_inc.exit22

11:                                               ; preds = %6
  %.val.i = load i32, ptr %8, align 4, !tbaa !8
  %12 = icmp sgt i32 %.val.i, 0
  br i1 %12, label %13, label %15, !prof !11

13:                                               ; preds = %11
  %14 = add nuw i32 %.val.i, 1
  store i32 %14, ptr %8, align 4, !tbaa !8
  br label %lean_inc.exit22

15:                                               ; preds = %11
  %.not.i26 = icmp eq i32 %.val.i, 0
  br i1 %.not.i26, label %lean_inc.exit22, label %16

16:                                               ; preds = %15
  tail call void @lean_inc_ref_cold(ptr noundef nonnull %8) #4
  br label %lean_inc.exit22

lean_inc.exit22:                                  ; preds = %16, %15, %13, %6
  %17 = ptrtoint ptr %1 to i64
  %18 = and i64 %17, 1
  %.not33 = icmp eq i64 %18, 0
  br i1 %.not33, label %19, label %lean_dec.exit23

19:                                               ; preds = %lean_inc.exit22
  %20 = load i32, ptr %1, align 4, !tbaa !8
  %21 = icmp sgt i32 %20, 1
  br i1 %21, label %22, label %24, !prof !11

22:                                               ; preds = %19
  %23 = add nsw i32 %20, -1
  store i32 %23, ptr %1, align 4, !tbaa !8
  br label %lean_dec.exit23

24:                                               ; preds = %19
  %.not.i = icmp eq i32 %20, 0
  br i1 %.not.i, label %lean_dec.exit23, label %25

25:                                               ; preds = %24
  tail call void @lean_dec_ref_cold(ptr noundef nonnull %1) #4
  br label %lean_dec.exit23

lean_dec.exit23:                                  ; preds = %25, %24, %22, %lean_inc.exit22
  tail call void @lean_inc_heartbeat() #4
  %26 = tail call noalias ptr @mi_malloc_small(i64 noundef 48) #4
  %27 = icmp eq ptr %26, null
  br i1 %27, label %28, label %lean_alloc_closure.exit

28:                                               ; preds = %lean_dec.exit23
  tail call void @lean_internal_panic_out_of_memory() #5
  unreachable

lean_alloc_closure.exit:                          ; preds = %lean_dec.exit23
  %29 = getelementptr inbounds nuw i8, ptr %26, i64 4
  store i32 1, ptr %26, align 4, !tbaa !8
  store i32 -184549328, ptr %29, align 4
  %30 = getelementptr inbounds nuw i8, ptr %26, i64 8
  store ptr @l_Lean_Meta_MatcherApp_withUserNames___rarg___lambda__1___boxed, ptr %30, align 8, !tbaa !4
  %31 = getelementptr inbounds nuw i8, ptr %26, i64 16
  store i16 9, ptr %31, align 8, !tbaa !15
  %32 = getelementptr inbounds nuw i8, ptr %26, i64 18
  store i16 3, ptr %32, align 2, !tbaa !15
  %33 = getelementptr inbounds nuw i8, ptr %26, i64 24
  store ptr %5, ptr %33, align 8, !tbaa !4
  %34 = getelementptr inbounds nuw i8, ptr %26, i64 32
  store ptr %3, ptr %34, align 8, !tbaa !4
  %35 = getelementptr inbounds nuw i8, ptr %26, i64 40
  store ptr %4, ptr %35, align 8, !tbaa !4
  %36 = getelementptr inbounds nuw i8, ptr %0, i64 8
  %37 = load ptr, ptr %36, align 8, !tbaa !4
  %38 = ptrtoint ptr %37 to i64
  %39 = and i64 %38, 1
  %.not34 = icmp eq i64 %39, 0
  br i1 %.not34, label %40, label %lean_inc.exit21

40:                                               ; preds = %lean_alloc_closure.exit
  %.val.i27 = load i32, ptr %37, align 4, !tbaa !8
  %41 = icmp sgt i32 %.val.i27, 0
  br i1 %41, label %42, label %44, !prof !11

42:                                               ; preds = %40
  %43 = add nuw i32 %.val.i27, 1
  store i32 %43, ptr %37, align 4, !tbaa !8
  br label %lean_inc.exit21

44:                                               ; preds = %40
  %.not.i28 = icmp eq i32 %.val.i27, 0
  br i1 %.not.i28, label %lean_inc.exit21, label %45

45:                                               ; preds = %44
  tail call void @lean_inc_ref_cold(ptr noundef nonnull %37) #4
  br label %lean_inc.exit21

lean_inc.exit21:                                  ; preds = %45, %44, %42, %lean_alloc_closure.exit
  %46 = tail call ptr @lean_apply_2(ptr noundef %37, ptr noundef nonnull inttoptr (i64 1 to ptr), ptr noundef nonnull %26) #4
  %47 = getelementptr inbounds nuw i8, ptr %0, i64 16
  %48 = load ptr, ptr %47, align 8, !tbaa !4
  %49 = ptrtoint ptr %48 to i64
  %50 = and i64 %49, 1
  %.not35 = icmp eq i64 %50, 0
  br i1 %.not35, label %51, label %lean_inc.exit

51:                                               ; preds = %lean_inc.exit21
  %.val.i30 = load i32, ptr %48, align 4, !tbaa !8
  %52 = icmp sgt i32 %.val.i30, 0
  br i1 %52, label %53, label %55, !prof !11

53:                                               ; preds = %51
  %54 = add nuw i32 %.val.i30, 1
  store i32 %54, ptr %48, align 4, !tbaa !8
  br label %lean_inc.exit

55:                                               ; preds = %51
  %.not.i31 = icmp eq i32 %.val.i30, 0
  br i1 %.not.i31, label %lean_inc.exit, label %56

56:                                               ; preds = %55
  tail call void @lean_inc_ref_cold(ptr noundef nonnull %48) #4
  br label %lean_inc.exit

lean_inc.exit:                                    ; preds = %56, %55, %53, %lean_inc.exit21
  %57 = ptrtoint ptr %0 to i64
  %58 = and i64 %57, 1
  %.not36 = icmp eq i64 %58, 0
  br i1 %.not36, label %59, label %lean_dec.exit

59:                                               ; preds = %lean_inc.exit
  %60 = load i32, ptr %0, align 4, !tbaa !8
  %61 = icmp sgt i32 %60, 1
  br i1 %61, label %62, label %64, !prof !11

62:                                               ; preds = %59
  %63 = add nsw i32 %60, -1
  store i32 %63, ptr %0, align 4, !tbaa !8
  br label %lean_dec.exit

64:                                               ; preds = %59
  %.not.i24 = icmp eq i32 %60, 0
  br i1 %.not.i24, label %lean_dec.exit, label %65

65:                                               ; preds = %64
  tail call void @lean_dec_ref_cold(ptr noundef nonnull %0) #4
  br label %lean_dec.exit

lean_dec.exit:                                    ; preds = %65, %64, %62, %lean_inc.exit
  %66 = tail call ptr @lean_apply_1(ptr noundef %48, ptr noundef nonnull inttoptr (i64 1 to ptr)) #4
  %67 = tail call ptr @lean_apply_4(ptr noundef %8, ptr noundef nonnull inttoptr (i64 1 to ptr), ptr noundef nonnull inttoptr (i64 1 to ptr), ptr noundef %46, ptr noundef %66) #4
  ret ptr %67
}